target datalayout = "e-m:e-p270:32:32-p271:32:32-p272:64:64-i64:64-i128:128-f80:128-n8:16:32:64-S128"
target triple = "x86_64-pc-linux-gnu"

%struct.CvRect = type { i32, i32, i32, i32 }
%"class.cv::Rect_" = type { i32, i32, i32, i32 }

; Function Attrs: mustprogress nounwind uwtable
define internal { i64, i64 } @_ZL6cvRectiiii(i32 noundef %0, i32 noundef %1, i32 noundef %2, i32 noundef %3) #1 {
  %5 = alloca %struct.CvRect, align 4
  %6 = alloca i32, align 4
  %7 = alloca i32, align 4
  %8 = alloca i32, align 4
  %9 = alloca i32, align 4
  store i32 %0, ptr %6, align 4
  store i32 %1, ptr %7, align 4
  store i32 %2, ptr %8, align 4
  store i32 %3, ptr %9, align 4
  %10 = getelementptr inbounds %struct.CvRect, ptr %5, i32 0, i32 0
  %11 = load i32, ptr %6, align 4
  store i32 %11, ptr %10, align 4
  %12 = getelementptr inbounds %struct.CvRect, ptr %5, i32 0, i32 1
  %13 = load i32, ptr %7, align 4
  store i32 %13, ptr %12, align 4
  %14 = getelementptr inbounds %struct.CvRect, ptr %5, i32 0, i32 2
  %15 = load i32, ptr %8, align 4
  store i32 %15, ptr %14, align 4
  %16 = getelementptr inbounds %struct.CvRect, ptr %5, i32 0, i32 3
  %17 = load i32, ptr %9, align 4
  store i32 %17, ptr %16, align 4
  %18 = load { i64, i64 }, ptr %5, align 4
  ret { i64, i64 } %18
}

; Function Attrs: mustprogress uwtable
define internal { i64, i64 } @_ZL6cvRectRKN2cv5Rect_IiEE(ptr noundef nonnull align 4 dereferenceable(16) %0) #0 {
  %2 = alloca %struct.CvRect, align 4
  %3 = alloca ptr, align 8
  store ptr %0, ptr %3, align 8
  %4 = load ptr, ptr %3, align 8
  %5 = getelementptr inbounds %"class.cv::Rect_", ptr %4, i32 0, i32 0
  %6 = load i32, ptr %5, align 4
  %7 = load ptr, ptr %3, align 8
  %8 = getelementptr inbounds %"class.cv::Rect_", ptr %7, i32 0, i32 1
  %9 = load i32, ptr %8, align 4
  %10 = load ptr, ptr %3, align 8
  %11 = getelementptr inbounds %"class.cv::Rect_", ptr %10, i32 0, i32 2
  %12 = load i32, ptr %11, align 4
  %13 = load ptr, ptr %3, align 8
  %14 = getelementptr inbounds %"class.cv::Rect_", ptr %13, i32 0, i32 3
  %15 = load i32, ptr %14, align 4
  %16 = call { i64, i64 } @_ZL6cvRectiiii(i32 noundef %6, i32 noundef %9, i32 noundef %12, i32 noundef %15)
  %17 = getelementptr inbounds { i64, i64 }, ptr %2, i32 0, i32 0
  %18 = extractvalue { i64, i64 } %16, 0
  store i64 %18, ptr %17, align 4
  %19 = getelementptr inbounds { i64, i64 }, ptr %2, i32 0, i32 1
  %20 = extractvalue { i64, i64 } %16, 1
  store i64 %20, ptr %19, align 4
  %21 = load { i64, i64 }, ptr %2, align 4
  ret { i64, i64 } %21
}

; Function Attrs: mustprogress nounwind uwtable
define linkonce_odr hidden void @_ZN2cv5Rect_IiEC2Ev(ptr noundef nonnull align 4 dereferenceable(16) %0) unnamed_addr #1 comdat align 2 {
  %2 = alloca ptr, align 8
  store ptr %0, ptr %2, align 8
  %3 = load ptr, ptr %2, align 8
  %4 = getelementptr inbounds %"class.cv::Rect_", ptr %3, i32 0, i32 0
  store i32 0, ptr %4, align 4
  %5 = getelementptr inbounds %"class.cv::Rect_", ptr %3, i32 0, i32 1
  store i32 0, ptr %5, align 4
  %6 = getelementptr inbounds %"class.cv::Rect_", ptr %3, i32 0, i32 2
  store i32 0, ptr %6, align 4
  %7 = getelementptr inbounds %"class.cv::Rect_", ptr %3, i32 0, i32 3
  store i32 0, ptr %7, align 4
  ret void
}

; Function Attrs: mustprogress uwtable
define { i64, i64 } @cvMaxRect(ptr noundef %0, ptr noundef %1) #0 {
  %3 = alloca %struct.CvRect, align 4
  %4 = alloca ptr, align 8
  %5 = alloca ptr, align 8
  %6 = alloca %"class.cv::Rect_", align 4
  %7 = alloca i32, align 4
  %8 = alloca i32, align 4
  store ptr %0, ptr %4, align 8
  store ptr %1, ptr %5, align 8
  %9 = load ptr, ptr %4, align 8
  %10 = icmp ne ptr %9, null
  br i1 %10, label %11, label %98

11:                                               ; preds = %2
  %12 = load ptr, ptr %5, align 8
  %13 = icmp ne ptr %12, null
  br i1 %13, label %14, label %98

14:                                               ; preds = %11
  call void @_ZN2cv5Rect_IiEC2Ev(ptr noundef nonnull align 4 dereferenceable(16) %6)
  %15 = load ptr, ptr %4, align 8
  %16 = getelementptr inbounds %struct.CvRect, ptr %15, i32 0, i32 0
  %17 = load i32, ptr %16, align 4
  store i32 %17, ptr %7, align 4
  %18 = getelementptr inbounds %"class.cv::Rect_", ptr %6, i32 0, i32 0
  store i32 %17, ptr %18, align 4
  %19 = load ptr, ptr %5, align 8
  %20 = getelementptr inbounds %struct.CvRect, ptr %19, i32 0, i32 0
  %21 = load i32, ptr %20, align 4
  store i32 %21, ptr %8, align 4
  %22 = getelementptr inbounds %"class.cv::Rect_", ptr %6, i32 0, i32 0
  %23 = load i32, ptr %22, align 4
  %24 = load i32, ptr %8, align 4
  %25 = icmp sgt i32 %23, %24
  br i1 %25, label %26, label %29

26:                                               ; preds = %14
  %27 = load i32, ptr %8, align 4
  %28 = getelementptr inbounds %"class.cv::Rect_", ptr %6, i32 0, i32 0
  store i32 %27, ptr %28, align 4
  br label %29

29:                                               ; preds = %26, %14
  %30 = load ptr, ptr %4, align 8
  %31 = getelementptr inbounds %struct.CvRect, ptr %30, i32 0, i32 2
  %32 = load i32, ptr %31, align 4
  %33 = load i32, ptr %7, align 4
  %34 = add nsw i32 %33, %32
  store i32 %34, ptr %7, align 4
  %35 = getelementptr inbounds %"class.cv::Rect_", ptr %6, i32 0, i32 2
  store i32 %34, ptr %35, align 4
  %36 = load ptr, ptr %5, align 8
  %37 = getelementptr inbounds %struct.CvRect, ptr %36, i32 0, i32 2
  %38 = load i32, ptr %37, align 4
  %39 = load i32, ptr %8, align 4
  %40 = add nsw i32 %39, %38
  store i32 %40, ptr %8, align 4
  %41 = getelementptr inbounds %"class.cv::Rect_", ptr %6, i32 0, i32 2
  %42 = load i32, ptr %41, align 4
  %43 = load i32, ptr %8, align 4
  %44 = icmp slt i32 %42, %43
  br i1 %44, label %45, label %48

45:                                               ; preds = %29
  %46 = load i32, ptr %8, align 4
  %47 = getelementptr inbounds %"class.cv::Rect_", ptr %6, i32 0, i32 2
  store i32 %46, ptr %47, align 4
  br label %48

48:                                               ; preds = %45, %29
  %49 = getelementptr inbounds %"class.cv::Rect_", ptr %6, i32 0, i32 0
  %50 = load i32, ptr %49, align 4
  %51 = getelementptr inbounds %"class.cv::Rect_", ptr %6, i32 0, i32 2
  %52 = load i32, ptr %51, align 4
  %53 = sub nsw i32 %52, %50
  store i32 %53, ptr %51, align 4
  %54 = load ptr, ptr %4, align 8
  %55 = getelementptr inbounds %struct.CvRect, ptr %54, i32 0, i32 1
  %56 = load i32, ptr %55, align 4
  store i32 %56, ptr %7, align 4
  %57 = getelementptr inbounds %"class.cv::Rect_", ptr %6, i32 0, i32 1
  store i32 %56, ptr %57, align 4
  %58 = load ptr, ptr %5, align 8
  %59 = getelementptr inbounds %struct.CvRect, ptr %58, i32 0, i32 1
  %60 = load i32, ptr %59, align 4
  store i32 %60, ptr %8, align 4
  %61 = getelementptr inbounds %"class.cv::Rect_", ptr %6, i32 0, i32 1
  %62 = load i32, ptr %61, align 4
  %63 = load i32, ptr %8, align 4
  %64 = icmp sgt i32 %62, %63
  br i1 %64, label %65, label %68

65:                                               ; preds = %48
  %66 = load i32, ptr %8, align 4
  %67 = getelementptr inbounds %"class.cv::Rect_", ptr %6, i32 0, i32 1
  store i32 %66, ptr %67, align 4
  br label %68

68:                                               ; preds = %65, %48
  %69 = load ptr, ptr %4, align 8
  %70 = getelementptr inbounds %struct.CvRect, ptr %69, i32 0, i32 3
  %71 = load i32, ptr %70, align 4
  %72 = load i32, ptr %7, align 4
  %73 = add nsw i32 %72, %71
  store i32 %73, ptr %7, align 4
  %74 = getelementptr inbounds %"class.cv::Rect_", ptr %6, i32 0, i32 3
  store i32 %73, ptr %74, align 4
  %75 = load ptr, ptr %5, align 8
  %76 = getelementptr inbounds %struct.CvRect, ptr %75, i32 0, i32 3
  %77 = load i32, ptr %76, align 4
  %78 = load i32, ptr %8, align 4
  %79 = add nsw i32 %78, %77
  store i32 %79, ptr %8, align 4
  %80 = getelementptr inbounds %"class.cv::Rect_", ptr %6, i32 0, i32 3
  %81 = load i32, ptr %80, align 4
  %82 = load i32, ptr %8, align 4
  %83 = icmp slt i32 %81, %82
  br i1 %83, label %84, label %87

84:                                               ; preds = %68
  %85 = load i32, ptr %8, align 4
  %86 = getelementptr inbounds %"class.cv::Rect_", ptr %6, i32 0, i32 3
  store i32 %85, ptr %86, align 4
  br label %87

87:                                               ; preds = %84, %68
  %88 = getelementptr inbounds %"class.cv::Rect_", ptr %6, i32 0, i32 1
  %89 = load i32, ptr %88, align 4
  %90 = getelementptr inbounds %"class.cv::Rect_", ptr %6, i32 0, i32 3
  %91 = load i32, ptr %90, align 4
  %92 = sub nsw i32 %91, %89
  store i32 %92, ptr %90, align 4
  %93 = call { i64, i64 } @_ZL6cvRectRKN2cv5Rect_IiEE(ptr noundef nonnull align 4 dereferenceable(16) %6)
  %94 = getelementptr inbounds { i64, i64 }, ptr %3, i32 0, i32 0
  %95 = extractvalue { i64, i64 } %93, 0
  store i64 %95, ptr %94, align 4
  %96 = getelementptr inbounds { i64, i64 }, ptr %3, i32 0, i32 1
  %97 = extractvalue { i64, i64 } %93, 1
  store i64 %97, ptr %96, align 4
  br label %114

98:                                               ; preds = %11, %2
  %99 = load ptr, ptr %4, align 8
  %100 = icmp ne ptr %99, null
  br i1 %100, label %101, label %103

101:                                              ; preds = %98
  %102 = load ptr, ptr %4, align 8
  call void @llvm.memcpy.p0.p0.i64(ptr align 4 %3, ptr align 4 %102, i64 16, i1 false)
  br label %114

103:                                              ; preds = %98
  %104 = load ptr, ptr %5, align 8
  %105 = icmp ne ptr %104, null
  br i1 %105, label %106, label %108

106:                                              ; preds = %103
  %107 = load ptr, ptr %5, align 8
  call void @llvm.memcpy.p0.p0.i64(ptr align 4 %3, ptr align 4 %107, i64 16, i1 false)
  br label %114

108:                                              ; preds = %103
  %109 = call { i64, i64 } @_ZL6cvRectiiii(i32 noundef 0, i32 noundef 0, i32 noundef 0, i32 noundef 0)
  %110 = getelementptr inbounds { i64, i64 }, ptr %3, i32 0, i32 0
  %111 = extractvalue { i64, i64 } %109, 0
  store i64 %111, ptr %110, align 4
  %112 = getelementptr inbounds { i64, i64 }, ptr %3, i32 0, i32 1
  %113 = extractvalue { i64, i64 } %109, 1
  store i64 %113, ptr %112, align 4
  br label %114

114:                                              ; preds = %108, %106, %101, %87
  %115 = load { i64, i64 }, ptr %3, align 4
  ret { i64, i64 } %115
}