; Function Attrs: mustprogress nofree norecurse nosync nounwind willreturn memory(argmem: read) uwtable
define { i64, i64 } @cvMaxRect(ptr noundef readonly %0, ptr noundef readonly %1) local_unnamed_addr #0 {
  %3 = icmp ne ptr %0, null
  %4 = icmp ne ptr %1, null
  %or.cond = and i1 %3, %4
  br i1 %or.cond, label %5, label %26

5:                                                ; preds = %2
  %6 = load i32, ptr %0, align 4
  %7 = load i32, ptr %1, align 4
  %spec.store.select = tail call i32 @llvm.smin.i32(i32 %6, i32 %7)
  %8 = getelementptr inbounds i8, ptr %0, i64 8
  %9 = load i32, ptr %8, align 4
  %10 = add nsw i32 %9, %6
  %11 = getelementptr inbounds i8, ptr %1, i64 8
  %12 = load i32, ptr %11, align 4
  %13 = add nsw i32 %12, %7
  %spec.store.select35 = tail call i32 @llvm.smax.i32(i32 %10, i32 %13)
  %14 = sub nsw i32 %spec.store.select35, %spec.store.select
  %.sroa.8.8.insert.ext = zext i32 %14 to i64
  %15 = getelementptr inbounds i8, ptr %0, i64 4
  %16 = load i32, ptr %15, align 4
  %17 = getelementptr inbounds i8, ptr %1, i64 4
  %18 = load i32, ptr %17, align 4
  %spec.store.select34 = tail call i32 @llvm.smin.i32(i32 %16, i32 %18)
  %19 = getelementptr inbounds i8, ptr %0, i64 12
  %20 = load i32, ptr %19, align 4
  %21 = add nsw i32 %20, %16
  %22 = getelementptr inbounds i8, ptr %1, i64 12
  %23 = load i32, ptr %22, align 4
  %24 = add nsw i32 %23, %18
  %spec.store.select36 = tail call i32 @llvm.smax.i32(i32 %21, i32 %24)
  %25 = sub nsw i32 %spec.store.select36, %spec.store.select34
  %.sroa.8.12.insert.ext = zext i32 %25 to i64
  %.sroa.8.12.insert.shift = shl nuw i64 %.sroa.8.12.insert.ext, 32
  %.sroa.8.12.insert.insert = or disjoint i64 %.sroa.8.12.insert.shift, %.sroa.8.8.insert.ext
  %.sroa.0.sroa.5.0.insert.ext = zext i32 %spec.store.select34 to i64
  %.sroa.0.sroa.5.0.insert.shift = shl nuw i64 %.sroa.0.sroa.5.0.insert.ext, 32
  %.sroa.0.sroa.0.0.insert.ext = zext i32 %spec.store.select to i64
  %.sroa.0.sroa.0.0.insert.insert = or disjoint i64 %.sroa.0.sroa.5.0.insert.shift, %.sroa.0.sroa.0.0.insert.ext
  br label %30

26:                                               ; preds = %2
  br i1 %3, label %27, label %28

27:                                               ; preds = %26
  %.sroa.0.0.copyload = load i64, ptr %0, align 4
  %.sroa.5.0..0.25.sroa_idx = getelementptr inbounds i8, ptr %0, i64 8
  %.sroa.5.0.copyload = load i64, ptr %.sroa.5.0..0.25.sroa_idx, align 4
  br label %30

28:                                               ; preds = %26
  br i1 %4, label %29, label %30

29:                                               ; preds = %28
  %.sroa.0.0.copyload26 = load i64, ptr %1, align 4
  %.sroa.5.0..0.17.sroa_idx = getelementptr inbounds i8, ptr %1, i64 8
  %.sroa.5.0.copyload27 = load i64, ptr %.sroa.5.0..0.17.sroa_idx, align 4
  br label %30

30:                                               ; preds = %28, %29, %27, %5
  %.sroa.0.0 = phi i64 [ %.sroa.0.sroa.0.0.insert.insert, %5 ], [ %.sroa.0.0.copyload, %27 ], [ %.sroa.0.0.copyload26, %29 ], [ 0, %28 ]
  %.sroa.5.0 = phi i64 [ %.sroa.8.12.insert.insert, %5 ], [ %.sroa.5.0.copyload, %27 ], [ %.sroa.5.0.copyload27, %29 ], [ 0, %28 ]
  %.fca.0.insert = insertvalue { i64, i64 } poison, i64 %.sroa.0.0, 0
  %.fca.1.insert = insertvalue { i64, i64 } %.fca.0.insert, i64 %.sroa.5.0, 1
  ret { i64, i64 } %.fca.1.insert
}